target datalayout = "e-m:e-p270:32:32-p271:32:32-p272:64:64-i64:64-i128:128-f80:128-n8:16:32:64-S128"
target triple = "x86_64-pc-linux-gnu"

%struct.ThreadData = type { ptr, ptr }
%struct.AVChannelLayout = type { i32, i32, %union.anon.1, ptr }
%union.anon.1 = type { i64 }
%struct.AVRational = type { i32, i32 }
%struct.AVFilterContext = type { ptr, ptr, ptr, ptr, ptr, i32, ptr, ptr, i32, ptr, ptr, i32, i32, ptr, ptr, ptr, ptr, i32, ptr, i32, i32 }
%struct.AVFrame = type { [8 x ptr], [8 x i32], ptr, i32, i32, i32, i32, i32, %struct.AVRational, i64, i64, %struct.AVRational, i32, ptr, i32, i32, [8 x ptr], ptr, i32, ptr, i32, i32, i32, i32, i32, i32, i32, i64, ptr, i32, ptr, ptr, i64, i64, i64, i64, ptr, %struct.AVChannelLayout, i64 }
%struct.ADenormContext = type { ptr, double, double, i32, i64, [4 x ptr] }

; Function Attrs: nounwind uwtable
define internal i32 @filter_channels(ptr noundef %0, ptr noundef %1, i32 noundef %2, i32 noundef %3) #1 {
  %5 = alloca ptr, align 8
  %6 = alloca ptr, align 8
  %7 = alloca i32, align 4
  %8 = alloca i32, align 4
  %9 = alloca ptr, align 8
  %10 = alloca ptr, align 8
  %11 = alloca ptr, align 8
  %12 = alloca ptr, align 8
  %13 = alloca i32, align 4
  %14 = alloca i32, align 4
  %15 = alloca i32, align 4
  store ptr %0, ptr %5, align 8, !tbaa !23
  store ptr %1, ptr %6, align 8, !tbaa !52
  store i32 %2, ptr %7, align 4, !tbaa !53
  store i32 %3, ptr %8, align 4, !tbaa !53
  call void @llvm.lifetime.start.p0(i64 8, ptr %9) #6
  %16 = load ptr, ptr %5, align 8, !tbaa !23
  %17 = getelementptr inbounds nuw %struct.AVFilterContext, ptr %16, i32 0, i32 9
  %18 = load ptr, ptr %17, align 8, !tbaa !24
  store ptr %18, ptr %9, align 8, !tbaa !34
  call void @llvm.lifetime.start.p0(i64 8, ptr %10) #6
  %19 = load ptr, ptr %6, align 8, !tbaa !52
  store ptr %19, ptr %10, align 8, !tbaa !54
  call void @llvm.lifetime.start.p0(i64 8, ptr %11) #6
  %20 = load ptr, ptr %10, align 8, !tbaa !54
  %21 = getelementptr inbounds nuw %struct.ThreadData, ptr %20, i32 0, i32 1
  %22 = load ptr, ptr %21, align 8, !tbaa !49
  store ptr %22, ptr %11, align 8, !tbaa !9
  call void @llvm.lifetime.start.p0(i64 8, ptr %12) #6
  %23 = load ptr, ptr %10, align 8, !tbaa !54
  %24 = getelementptr inbounds nuw %struct.ThreadData, ptr %23, i32 0, i32 0
  %25 = load ptr, ptr %24, align 8, !tbaa !47
  store ptr %25, ptr %12, align 8, !tbaa !9
  call void @llvm.lifetime.start.p0(i64 4, ptr %13) #6
  %26 = load ptr, ptr %12, align 8, !tbaa !9
  %27 = getelementptr inbounds nuw %struct.AVFrame, ptr %26, i32 0, i32 37
  %28 = getelementptr inbounds nuw %struct.AVChannelLayout, ptr %27, i32 0, i32 1
  %29 = load i32, ptr %28, align 4, !tbaa !56
  %30 = load i32, ptr %7, align 4, !tbaa !53
  %31 = mul nsw i32 %29, %30
  %32 = load i32, ptr %8, align 4, !tbaa !53
  %33 = sdiv i32 %31, %32
  store i32 %33, ptr %13, align 4, !tbaa !53
  call void @llvm.lifetime.start.p0(i64 4, ptr %14) #6
  %34 = load ptr, ptr %12, align 8, !tbaa !9
  %35 = getelementptr inbounds nuw %struct.AVFrame, ptr %34, i32 0, i32 37
  %36 = getelementptr inbounds nuw %struct.AVChannelLayout, ptr %35, i32 0, i32 1
  %37 = load i32, ptr %36, align 4, !tbaa !56
  %38 = load i32, ptr %7, align 4, !tbaa !53
  %39 = add nsw i32 %38, 1
  %40 = mul nsw i32 %37, %39
  %41 = load i32, ptr %8, align 4, !tbaa !53
  %42 = sdiv i32 %40, %41
  store i32 %42, ptr %14, align 4, !tbaa !53
  call void @llvm.lifetime.start.p0(i64 4, ptr %15) #6
  %43 = load i32, ptr %13, align 4, !tbaa !53
  store i32 %43, ptr %15, align 4, !tbaa !53
  br label %44

44:                                               ; preds = %76, %4
  %45 = load i32, ptr %15, align 4, !tbaa !53
  %46 = load i32, ptr %14, align 4, !tbaa !53
  %47 = icmp slt i32 %45, %46
  br i1 %47, label %49, label %48

48:                                               ; preds = %44
  call void @llvm.lifetime.end.p0(i64 4, ptr %15) #6
  br label %79

49:                                               ; preds = %44
  %50 = load ptr, ptr %9, align 8, !tbaa !34
  %51 = getelementptr inbounds nuw %struct.ADenormContext, ptr %50, i32 0, i32 5
  %52 = load ptr, ptr %9, align 8, !tbaa !34
  %53 = getelementptr inbounds nuw %struct.ADenormContext, ptr %52, i32 0, i32 3
  %54 = load i32, ptr %53, align 8, !tbaa !57
  %55 = sext i32 %54 to i64
  %56 = getelementptr inbounds [4 x ptr], ptr %51, i64 0, i64 %55
  %57 = load ptr, ptr %56, align 8, !tbaa !52
  %58 = load ptr, ptr %5, align 8, !tbaa !23
  %59 = load ptr, ptr %11, align 8, !tbaa !9
  %60 = getelementptr inbounds nuw %struct.AVFrame, ptr %59, i32 0, i32 2
  %61 = load ptr, ptr %60, align 8, !tbaa !58
  %62 = load i32, ptr %15, align 4, !tbaa !53
  %63 = sext i32 %62 to i64
  %64 = getelementptr inbounds ptr, ptr %61, i64 %63
  %65 = load ptr, ptr %64, align 8, !tbaa !59
  %66 = load ptr, ptr %12, align 8, !tbaa !9
  %67 = getelementptr inbounds nuw %struct.AVFrame, ptr %66, i32 0, i32 2
  %68 = load ptr, ptr %67, align 8, !tbaa !58
  %69 = load i32, ptr %15, align 4, !tbaa !53
  %70 = sext i32 %69 to i64
  %71 = getelementptr inbounds ptr, ptr %68, i64 %70
  %72 = load ptr, ptr %71, align 8, !tbaa !59
  %73 = load ptr, ptr %12, align 8, !tbaa !9
  %74 = getelementptr inbounds nuw %struct.AVFrame, ptr %73, i32 0, i32 5
  %75 = load i32, ptr %74, align 8, !tbaa !37
  call void %57(ptr noundef %58, ptr noundef %65, ptr noundef %72, i32 noundef %75)
  br label %76

76:                                               ; preds = %49
  %77 = load i32, ptr %15, align 4, !tbaa !53
  %78 = add nsw i32 %77, 1
  store i32 %78, ptr %15, align 4, !tbaa !53
  br label %44, !llvm.loop !60

79:                                               ; preds = %48
  call void @llvm.lifetime.end.p0(i64 4, ptr %14) #6
  call void @llvm.lifetime.end.p0(i64 4, ptr %13) #6
  call void @llvm.lifetime.end.p0(i64 8, ptr %12) #6
  call void @llvm.lifetime.end.p0(i64 8, ptr %11) #6
  call void @llvm.lifetime.end.p0(i64 8, ptr %10) #6
  call void @llvm.lifetime.end.p0(i64 8, ptr %9) #6
  ret i32 0
}