; Function Attrs: nounwind uwtable
define internal noundef i32 @filter_channels(ptr noundef %0, ptr noundef readonly captures(none) %1, i32 noundef %2, i32 noundef %3) #1 {
  %5 = load ptr, ptr %1, align 8, !tbaa !44
  %6 = getelementptr inbounds nuw i8, ptr %5, i64 388
  %7 = load i32, ptr %6, align 4, !tbaa !49
  %8 = mul nsw i32 %7, %2
  %9 = sdiv i32 %8, %3
  %10 = add nsw i32 %2, 1
  %11 = mul nsw i32 %7, %10
  %12 = sdiv i32 %11, %3
  %13 = icmp slt i32 %9, %12
  br i1 %13, label %.lr.ph, label %._crit_edge

.lr.ph:                                           ; preds = %4
  %14 = getelementptr inbounds nuw i8, ptr %1, i64 8
  %15 = load ptr, ptr %14, align 8, !tbaa !46
  %16 = getelementptr inbounds nuw i8, ptr %0, i64 72
  %17 = load ptr, ptr %16, align 8, !tbaa !21
  %18 = getelementptr inbounds nuw i8, ptr %17, i64 40
  %19 = getelementptr inbounds nuw i8, ptr %17, i64 24
  %20 = getelementptr inbounds nuw i8, ptr %15, i64 96
  %21 = getelementptr inbounds nuw i8, ptr %5, i64 96
  %22 = getelementptr inbounds nuw i8, ptr %5, i64 112
  %23 = sext i32 %9 to i64
  br label %24

._crit_edge:                                      ; preds = %24, %4
  ret i32 0

24:                                               ; preds = %.lr.ph, %24
  %indvars.iv = phi i64 [ %23, %.lr.ph ], [ %indvars.iv.next, %24 ]
  %25 = load i32, ptr %19, align 8, !tbaa !50
  %26 = sext i32 %25 to i64
  %27 = getelementptr inbounds [4 x ptr], ptr %18, i64 0, i64 %26
  %28 = load ptr, ptr %27, align 8, !tbaa !51
  %29 = load ptr, ptr %20, align 8, !tbaa !52
  %30 = getelementptr inbounds ptr, ptr %29, i64 %indvars.iv
  %31 = load ptr, ptr %30, align 8, !tbaa !53
  %32 = load ptr, ptr %21, align 8, !tbaa !52
  %33 = getelementptr inbounds ptr, ptr %32, i64 %indvars.iv
  %34 = load ptr, ptr %33, align 8, !tbaa !53
  %35 = load i32, ptr %22, align 8, !tbaa !34
  tail call void %28(ptr noundef nonnull %0, ptr noundef %31, ptr noundef %34, i32 noundef %35) #8
  %indvars.iv.next = add nsw i64 %indvars.iv, 1
  %lftr.wideiv = trunc i64 %indvars.iv.next to i32
  %exitcond.not = icmp eq i32 %12, %lftr.wideiv
  br i1 %exitcond.not, label %._crit_edge, label %24, !llvm.loop !54
}